target datalayout = "e-m:e-p270:32:32-p271:32:32-p272:64:64-i64:64-i128:128-f80:128-n8:16:32:64-S128"
target triple = "x86_64-pc-linux-gnu"

%struct.Node = type { i32 }
%struct.List = type { i32, i32, i32, ptr, [0 x %union.ListCell] }
%union.ListCell = type { ptr }
%struct.QualCost = type { double, double }
%struct.Expr = type { i32 }
%struct.RestrictInfo = type { i32, ptr, i8, i8, i8, i8, i8, i8, i32, i32, i32, ptr, ptr, ptr, ptr, ptr, ptr, ptr, i32, ptr, %struct.QualCost, double, double, ptr, ptr, ptr, ptr, ptr, ptr, i8, i32, double, double, double, double, i32, i32 }
%struct.OpExpr = type { %struct.Expr, i32, i32, i32, i8, i32, i32, ptr, i32 }
%struct.TypeCacheEntry = type { i32, i32, i16, i8, i8, i8, i8, i32, i32, i32, i32, i32, i32, i32, i32, i32, i32, i32, i32, i32, i32, %struct.FmgrInfo, %struct.FmgrInfo, %struct.FmgrInfo, %struct.FmgrInfo, ptr, i64, ptr, i32, i32, %struct.FmgrInfo, %struct.FmgrInfo, %struct.FmgrInfo, ptr, i32, i32, ptr, i32, ptr, ptr }
%struct.FmgrInfo = type { ptr, i32, i16, i8, i8, i8, ptr, ptr, ptr }

; Function Attrs: inlinehint nounwind uwtable
define internal ptr @list_nth_cell(ptr noundef %0, i32 noundef %1) #5 {
  %3 = alloca ptr, align 8
  %4 = alloca i32, align 4
  store ptr %0, ptr %3, align 8
  store i32 %1, ptr %4, align 4
  %5 = load ptr, ptr %3, align 8
  %6 = getelementptr inbounds nuw %struct.List, ptr %5, i32 0, i32 3
  %7 = load ptr, ptr %6, align 8
  %8 = load i32, ptr %4, align 4
  %9 = sext i32 %8 to i64
  %10 = getelementptr inbounds %union.ListCell, ptr %7, i64 %9
  ret ptr %10
}

; Function Attrs: inlinehint nounwind uwtable
define internal i32 @list_length(ptr noundef %0) #5 {
  %2 = alloca ptr, align 8
  store ptr %0, ptr %2, align 8
  %3 = load ptr, ptr %2, align 8
  %4 = icmp ne ptr %3, null
  br i1 %4, label %5, label %9

5:                                                ; preds = %1
  %6 = load ptr, ptr %2, align 8
  %7 = getelementptr inbounds nuw %struct.List, ptr %6, i32 0, i32 1
  %8 = load i32, ptr %7, align 4
  br label %10

9:                                                ; preds = %1
  br label %10

10:                                               ; preds = %9, %5
  %11 = phi i32 [ %8, %5 ], [ 0, %9 ]
  ret i32 %11
}

; Function Attrs: inlinehint nounwind uwtable
define internal zeroext i1 @is_opclause(ptr noundef %0) #5 {
  %2 = alloca ptr, align 8
  store ptr %0, ptr %2, align 8
  %3 = load ptr, ptr %2, align 8
  %4 = icmp ne ptr %3, null
  br i1 %4, label %5, label %10

5:                                                ; preds = %1
  %6 = load ptr, ptr %2, align 8
  %7 = getelementptr inbounds nuw %struct.Node, ptr %6, i32 0, i32 0
  %8 = load i32, ptr %7, align 4
  %9 = icmp eq i32 %8, 17
  br label %10

10:                                               ; preds = %5, %1
  %11 = phi i1 [ false, %1 ], [ %9, %5 ]
  ret i1 %11
}

; Function Attrs: nounwind uwtable
define internal void @check_memoizable(ptr noundef %0) #0 {
  %2 = alloca ptr, align 8
  %3 = alloca ptr, align 8
  %4 = alloca ptr, align 8
  %5 = alloca i32, align 4
  %6 = alloca i32, align 4
  %7 = alloca i32, align 4
  store ptr %0, ptr %2, align 8
  call void @llvm.lifetime.start.p0(i64 8, ptr %3) #6
  call void @llvm.lifetime.start.p0(i64 8, ptr %4) #6
  %8 = load ptr, ptr %2, align 8
  %9 = getelementptr inbounds nuw %struct.RestrictInfo, ptr %8, i32 0, i32 1
  %10 = load ptr, ptr %9, align 8
  store ptr %10, ptr %4, align 8
  call void @llvm.lifetime.start.p0(i64 4, ptr %5) #6
  call void @llvm.lifetime.start.p0(i64 4, ptr %6) #6
  %11 = load ptr, ptr %2, align 8
  %12 = getelementptr inbounds nuw %struct.RestrictInfo, ptr %11, i32 0, i32 4
  %13 = load i8, ptr %12, align 2, !range !6, !noundef !7
  %14 = trunc i8 %13 to i1
  br i1 %14, label %15, label %16

15:                                               ; preds = %1
  store i32 1, ptr %7, align 4
  br label %81

16:                                               ; preds = %1
  %17 = load ptr, ptr %4, align 8
  %18 = call zeroext i1 @is_opclause(ptr noundef %17)
  br i1 %18, label %20, label %19

19:                                               ; preds = %16
  store i32 1, ptr %7, align 4
  br label %81

20:                                               ; preds = %16
  %21 = load ptr, ptr %4, align 8
  %22 = getelementptr inbounds nuw %struct.OpExpr, ptr %21, i32 0, i32 7
  %23 = load ptr, ptr %22, align 8
  %24 = call i32 @list_length(ptr noundef %23)
  %25 = icmp ne i32 %24, 2
  br i1 %25, label %26, label %27

26:                                               ; preds = %20
  store i32 1, ptr %7, align 4
  br label %81

27:                                               ; preds = %20
  %28 = load ptr, ptr %4, align 8
  %29 = getelementptr inbounds nuw %struct.OpExpr, ptr %28, i32 0, i32 7
  %30 = load ptr, ptr %29, align 8
  %31 = call ptr @list_nth_cell(ptr noundef %30, i32 noundef 0)
  %32 = load ptr, ptr %31, align 8
  %33 = call i32 @exprType(ptr noundef %32)
  store i32 %33, ptr %5, align 4
  %34 = load i32, ptr %5, align 4
  %35 = call ptr @lookup_type_cache(i32 noundef %34, i32 noundef 17)
  store ptr %35, ptr %3, align 8
  %36 = load ptr, ptr %3, align 8
  %37 = getelementptr inbounds nuw %struct.TypeCacheEntry, ptr %36, i32 0, i32 19
  %38 = load i32, ptr %37, align 8
  %39 = icmp ne i32 %38, 0
  br i1 %39, label %40, label %51

40:                                               ; preds = %27
  %41 = load ptr, ptr %3, align 8
  %42 = getelementptr inbounds nuw %struct.TypeCacheEntry, ptr %41, i32 0, i32 15
  %43 = load i32, ptr %42, align 8
  %44 = icmp ne i32 %43, 0
  br i1 %44, label %45, label %51

45:                                               ; preds = %40
  %46 = load ptr, ptr %3, align 8
  %47 = getelementptr inbounds nuw %struct.TypeCacheEntry, ptr %46, i32 0, i32 15
  %48 = load i32, ptr %47, align 8
  %49 = load ptr, ptr %2, align 8
  %50 = getelementptr inbounds nuw %struct.RestrictInfo, ptr %49, i32 0, i32 35
  store i32 %48, ptr %50, align 8
  br label %51

51:                                               ; preds = %45, %40, %27
  %52 = load ptr, ptr %4, align 8
  %53 = getelementptr inbounds nuw %struct.OpExpr, ptr %52, i32 0, i32 7
  %54 = load ptr, ptr %53, align 8
  %55 = call ptr @list_nth_cell(ptr noundef %54, i32 noundef 1)
  %56 = load ptr, ptr %55, align 8
  %57 = call i32 @exprType(ptr noundef %56)
  store i32 %57, ptr %6, align 4
  %58 = load i32, ptr %5, align 4
  %59 = load i32, ptr %6, align 4
  %60 = icmp ne i32 %58, %59
  br i1 %60, label %61, label %64

61:                                               ; preds = %51
  %62 = load i32, ptr %6, align 4
  %63 = call ptr @lookup_type_cache(i32 noundef %62, i32 noundef 17)
  store ptr %63, ptr %3, align 8
  br label %64

64:                                               ; preds = %61, %51
  %65 = load ptr, ptr %3, align 8
  %66 = getelementptr inbounds nuw %struct.TypeCacheEntry, ptr %65, i32 0, i32 19
  %67 = load i32, ptr %66, align 8
  %68 = icmp ne i32 %67, 0
  br i1 %68, label %69, label %80

69:                                               ; preds = %64
  %70 = load ptr, ptr %3, align 8
  %71 = getelementptr inbounds nuw %struct.TypeCacheEntry, ptr %70, i32 0, i32 15
  %72 = load i32, ptr %71, align 8
  %73 = icmp ne i32 %72, 0
  br i1 %73, label %74, label %80

74:                                               ; preds = %69
  %75 = load ptr, ptr %3, align 8
  %76 = getelementptr inbounds nuw %struct.TypeCacheEntry, ptr %75, i32 0, i32 15
  %77 = load i32, ptr %76, align 8
  %78 = load ptr, ptr %2, align 8
  %79 = getelementptr inbounds nuw %struct.RestrictInfo, ptr %78, i32 0, i32 36
  store i32 %77, ptr %79, align 4
  br label %80

80:                                               ; preds = %74, %69, %64
  store i32 0, ptr %7, align 4
  br label %81

81:                                               ; preds = %80, %26, %19, %15
  call void @llvm.lifetime.end.p0(i64 4, ptr %6) #6
  call void @llvm.lifetime.end.p0(i64 4, ptr %5) #6
  call void @llvm.lifetime.end.p0(i64 8, ptr %4) #6
  call void @llvm.lifetime.end.p0(i64 8, ptr %3) #6
  %82 = load i32, ptr %7, align 4
  switch i32 %82, label %84 [
    i32 0, label %83
    i32 1, label %83
  ]

83:                                               ; preds = %81, %81
  ret void

84:                                               ; preds = %81
  unreachable
}