; Function Attrs: nounwind uwtable
define internal fastcc void @check_memoizable(ptr noundef captures(none) %0) unnamed_addr #0 {
  %2 = getelementptr inbounds nuw i8, ptr %0, i64 8
  %3 = load ptr, ptr %2, align 8
  %4 = getelementptr inbounds nuw i8, ptr %0, i64 18
  %5 = load i8, ptr %4, align 2, !range !4, !noundef !5
  %6 = trunc nuw i8 %5 to i1
  %.not.i = icmp eq ptr %3, null
  %or.cond = select i1 %6, i1 true, i1 %.not.i
  br i1 %or.cond, label %is_opclause.exit.thread, label %is_opclause.exit

is_opclause.exit:                                 ; preds = %1
  %7 = load i32, ptr %3, align 4
  %8 = icmp eq i32 %7, 17
  br i1 %8, label %9, label %is_opclause.exit.thread

9:                                                ; preds = %is_opclause.exit
  %10 = getelementptr inbounds nuw i8, ptr %3, i64 32
  %11 = load ptr, ptr %10, align 8
  %.not.i26 = icmp eq ptr %11, null
  br i1 %.not.i26, label %is_opclause.exit.thread, label %list_length.exit

list_length.exit:                                 ; preds = %9
  %12 = getelementptr inbounds nuw i8, ptr %11, i64 4
  %13 = load i32, ptr %12, align 4
  %.not = icmp eq i32 %13, 2
  br i1 %.not, label %14, label %is_opclause.exit.thread

14:                                               ; preds = %list_length.exit
  %15 = getelementptr i8, ptr %11, i64 16
  %.val25 = load ptr, ptr %15, align 8
  %16 = load ptr, ptr %.val25, align 8
  %17 = tail call i32 @exprType(ptr noundef %16) #7
  %18 = tail call ptr @lookup_type_cache(i32 noundef %17, i32 noundef 17) #7
  %19 = getelementptr inbounds nuw i8, ptr %18, i64 64
  %20 = load i32, ptr %19, align 8
  %.not20 = icmp eq i32 %20, 0
  br i1 %.not20, label %26, label %21

21:                                               ; preds = %14
  %22 = getelementptr inbounds nuw i8, ptr %18, i64 48
  %23 = load i32, ptr %22, align 8
  %.not21 = icmp eq i32 %23, 0
  br i1 %.not21, label %26, label %24

24:                                               ; preds = %21
  %25 = getelementptr inbounds nuw i8, ptr %0, i64 232
  store i32 %23, ptr %25, align 8
  br label %26

26:                                               ; preds = %24, %21, %14
  %27 = load ptr, ptr %10, align 8
  %28 = getelementptr i8, ptr %27, i64 16
  %.val = load ptr, ptr %28, align 8
  %29 = getelementptr inbounds nuw i8, ptr %.val, i64 8
  %30 = load ptr, ptr %29, align 8
  %31 = tail call i32 @exprType(ptr noundef %30) #7
  %.not22 = icmp eq i32 %17, %31
  br i1 %.not22, label %34, label %32

32:                                               ; preds = %26
  %33 = tail call ptr @lookup_type_cache(i32 noundef %31, i32 noundef 17) #7
  br label %34

34:                                               ; preds = %32, %26
  %.0 = phi ptr [ %33, %32 ], [ %18, %26 ]
  %35 = getelementptr inbounds nuw i8, ptr %.0, i64 64
  %36 = load i32, ptr %35, align 8
  %.not23 = icmp eq i32 %36, 0
  br i1 %.not23, label %is_opclause.exit.thread, label %37

37:                                               ; preds = %34
  %38 = getelementptr inbounds nuw i8, ptr %.0, i64 48
  %39 = load i32, ptr %38, align 8
  %.not24 = icmp eq i32 %39, 0
  br i1 %.not24, label %is_opclause.exit.thread, label %40

40:                                               ; preds = %37
  %41 = getelementptr inbounds nuw i8, ptr %0, i64 236
  store i32 %39, ptr %41, align 4
  br label %is_opclause.exit.thread

is_opclause.exit.thread:                          ; preds = %9, %34, %37, %40, %list_length.exit, %is_opclause.exit, %1
  ret void
}